; Function Attrs: mustprogress uwtable
define void @_ZN6icu_7717GregorianCalendarC2ERKS0_(ptr noundef nonnull align 8 dereferenceable(222) %0, ptr noundef nonnull align 8 dereferenceable(222) %1) unnamed_addr #1 align 2 {
  tail call void @_ZN6icu_778CalendarC2ERKS0_(ptr noundef nonnull align 8 dereferenceable(192) %0, ptr noundef nonnull align 8 dereferenceable(192) %1)
  store ptr getelementptr inbounds nuw inrange(-16, 480) (i8, ptr @_ZTVN6icu_7717GregorianCalendarE, i64 16), ptr %0, align 8, !tbaa !3
  %3 = getelementptr inbounds nuw i8, ptr %0, i64 192
  %4 = getelementptr inbounds nuw i8, ptr %1, i64 192
  %5 = load double, ptr %4, align 8, !tbaa !6
  store double %5, ptr %3, align 8, !tbaa !6
  %6 = getelementptr inbounds nuw i8, ptr %0, i64 200
  %7 = getelementptr inbounds nuw i8, ptr %1, i64 200
  %8 = load i32, ptr %7, align 8, !tbaa !20
  store i32 %8, ptr %6, align 8, !tbaa !20
  %9 = getelementptr inbounds nuw i8, ptr %0, i64 208
  %10 = getelementptr inbounds nuw i8, ptr %1, i64 208
  %11 = load double, ptr %10, align 8, !tbaa !21
  store double %11, ptr %9, align 8, !tbaa !21
  %12 = getelementptr inbounds nuw i8, ptr %0, i64 216
  %13 = getelementptr inbounds nuw i8, ptr %1, i64 216
  %14 = load i32, ptr %13, align 8, !tbaa !22
  store i32 %14, ptr %12, align 8, !tbaa !22
  %15 = getelementptr inbounds nuw i8, ptr %0, i64 220
  %16 = getelementptr inbounds nuw i8, ptr %1, i64 220
  %17 = load i8, ptr %16, align 4, !tbaa !23
  store i8 %17, ptr %15, align 4, !tbaa !23
  %18 = getelementptr inbounds nuw i8, ptr %0, i64 221
  %19 = getelementptr inbounds nuw i8, ptr %1, i64 221
  %20 = load i8, ptr %19, align 1, !tbaa !24
  store i8 %20, ptr %18, align 1, !tbaa !24
  ret void
}